target datalayout = "e-m:e-p270:32:32-p271:32:32-p272:64:64-i64:64-i128:128-f80:128-n8:16:32:64-S128"
target triple = "x86_64-unknown-linux-gnu"

@_ZZL13encode_base64PKhiPciE13base64enc_tab = internal constant [65 x i8] c"ABCDEFGHIJKLMNOPQRSTUVWXYZabcdefghijklmnopqrstuvwxyz0123456789+/\00", align 16

; Function Attrs: mustprogress nounwind uwtable
define internal noundef i32 @_ZL13encode_base64PKhiPci(ptr noundef %in_, i32 noundef %in_len_, ptr noundef %out_, i32 noundef %out_len_) #3 {
entry:
  %retval = alloca i32, align 4
  %in_.addr = alloca ptr, align 8
  %in_len_.addr = alloca i32, align 4
  %out_.addr = alloca ptr, align 8
  %out_len_.addr = alloca i32, align 4
  %io = alloca i32, align 4
  %v = alloca i32, align 4
  %rem = alloca i32, align 4
  %ii = alloca i32, align 4
  %ch = alloca i8, align 1
  store ptr %in_, ptr %in_.addr, align 8
  store i32 %in_len_, ptr %in_len_.addr, align 4
  store ptr %out_, ptr %out_.addr, align 8
  store i32 %out_len_, ptr %out_len_.addr, align 4
  store i32 0, ptr %io, align 4
  store i32 0, ptr %v, align 4
  store i32 0, ptr %rem, align 4
  store i32 0, ptr %ii, align 4
  br label %for.cond

for.cond:                                         ; preds = %for.inc, %entry
  %0 = load i32, ptr %ii, align 4
  %1 = load i32, ptr %in_len_.addr, align 4
  %cmp = icmp slt i32 %0, %1
  br i1 %cmp, label %for.body, label %for.end

for.body:                                         ; preds = %for.cond
  %2 = load ptr, ptr %in_.addr, align 8
  %3 = load i32, ptr %ii, align 4
  %idxprom = sext i32 %3 to i64
  %arrayidx = getelementptr inbounds i8, ptr %2, i64 %idxprom
  %4 = load i8, ptr %arrayidx, align 1
  store i8 %4, ptr %ch, align 1
  %5 = load i32, ptr %v, align 4
  %shl = shl i32 %5, 8
  %6 = load i8, ptr %ch, align 1
  %conv = zext i8 %6 to i32
  %or = or i32 %shl, %conv
  store i32 %or, ptr %v, align 4
  %7 = load i32, ptr %rem, align 4
  %add = add nsw i32 %7, 8
  store i32 %add, ptr %rem, align 4
  br label %while.cond

while.cond:                                       ; preds = %if.end, %for.body
  %8 = load i32, ptr %rem, align 4
  %cmp1 = icmp sge i32 %8, 6
  br i1 %cmp1, label %while.body, label %while.end

while.body:                                       ; preds = %while.cond
  %9 = load i32, ptr %rem, align 4
  %sub = sub nsw i32 %9, 6
  store i32 %sub, ptr %rem, align 4
  %10 = load i32, ptr %io, align 4
  %11 = load i32, ptr %out_len_.addr, align 4
  %cmp2 = icmp sge i32 %10, %11
  br i1 %cmp2, label %if.then, label %if.end

if.then:                                          ; preds = %while.body
  store i32 -1, ptr %retval, align 4
  br label %return

if.end:                                           ; preds = %while.body
  %12 = load i32, ptr %v, align 4
  %13 = load i32, ptr %rem, align 4
  %shr = lshr i32 %12, %13
  %and = and i32 %shr, 63
  %idxprom3 = zext i32 %and to i64
  %arrayidx4 = getelementptr inbounds [65 x i8], ptr @_ZZL13encode_base64PKhiPciE13base64enc_tab, i64 0, i64 %idxprom3
  %14 = load i8, ptr %arrayidx4, align 1
  %15 = load ptr, ptr %out_.addr, align 8
  %16 = load i32, ptr %io, align 4
  %inc = add nsw i32 %16, 1
  store i32 %inc, ptr %io, align 4
  %idxprom5 = sext i32 %16 to i64
  %arrayidx6 = getelementptr inbounds i8, ptr %15, i64 %idxprom5
  store i8 %14, ptr %arrayidx6, align 1
  br label %while.cond, !llvm.loop !4

while.end:                                        ; preds = %while.cond
  br label %for.inc

for.inc:                                          ; preds = %while.end
  %17 = load i32, ptr %ii, align 4
  %inc7 = add nsw i32 %17, 1
  store i32 %inc7, ptr %ii, align 4
  br label %for.cond, !llvm.loop !6

for.end:                                          ; preds = %for.cond
  %18 = load i32, ptr %rem, align 4
  %tobool = icmp ne i32 %18, 0
  br i1 %tobool, label %if.then8, label %if.end20

if.then8:                                         ; preds = %for.end
  %19 = load i32, ptr %rem, align 4
  %sub9 = sub nsw i32 6, %19
  %20 = load i32, ptr %v, align 4
  %shl10 = shl i32 %20, %sub9
  store i32 %shl10, ptr %v, align 4
  %21 = load i32, ptr %io, align 4
  %22 = load i32, ptr %out_len_.addr, align 4
  %cmp11 = icmp sge i32 %21, %22
  br i1 %cmp11, label %if.then12, label %if.end13

if.then12:                                        ; preds = %if.then8
  store i32 -1, ptr %retval, align 4
  br label %return

if.end13:                                         ; preds = %if.then8
  %23 = load i32, ptr %v, align 4
  %and14 = and i32 %23, 63
  %idxprom15 = zext i32 %and14 to i64
  %arrayidx16 = getelementptr inbounds [65 x i8], ptr @_ZZL13encode_base64PKhiPciE13base64enc_tab, i64 0, i64 %idxprom15
  %24 = load i8, ptr %arrayidx16, align 1
  %25 = load ptr, ptr %out_.addr, align 8
  %26 = load i32, ptr %io, align 4
  %inc17 = add nsw i32 %26, 1
  store i32 %inc17, ptr %io, align 4
  %idxprom18 = sext i32 %26 to i64
  %arrayidx19 = getelementptr inbounds i8, ptr %25, i64 %idxprom18
  store i8 %24, ptr %arrayidx19, align 1
  br label %if.end20

if.end20:                                         ; preds = %if.end13, %for.end
  br label %while.cond21

while.cond21:                                     ; preds = %if.end27, %if.end20
  %27 = load i32, ptr %io, align 4
  %and22 = and i32 %27, 3
  %tobool23 = icmp ne i32 %and22, 0
  br i1 %tobool23, label %while.body24, label %while.end31

while.body24:                                     ; preds = %while.cond21
  %28 = load i32, ptr %io, align 4
  %29 = load i32, ptr %out_len_.addr, align 4
  %cmp25 = icmp sge i32 %28, %29
  br i1 %cmp25, label %if.then26, label %if.end27

if.then26:                                        ; preds = %while.body24
  store i32 -1, ptr %retval, align 4
  br label %return

if.end27:                                         ; preds = %while.body24
  %30 = load ptr, ptr %out_.addr, align 8
  %31 = load i32, ptr %io, align 4
  %inc28 = add nsw i32 %31, 1
  store i32 %inc28, ptr %io, align 4
  %idxprom29 = sext i32 %31 to i64
  %arrayidx30 = getelementptr inbounds i8, ptr %30, i64 %idxprom29
  store i8 61, ptr %arrayidx30, align 1
  br label %while.cond21, !llvm.loop !7

while.end31:                                      ; preds = %while.cond21
  %32 = load i32, ptr %io, align 4
  %33 = load i32, ptr %out_len_.addr, align 4
  %cmp32 = icmp sge i32 %32, %33
  br i1 %cmp32, label %if.then33, label %if.end34

if.then33:                                        ; preds = %while.end31
  store i32 -1, ptr %retval, align 4
  br label %return

if.end34:                                         ; preds = %while.end31
  %34 = load ptr, ptr %out_.addr, align 8
  %35 = load i32, ptr %io, align 4
  %idxprom35 = sext i32 %35 to i64
  %arrayidx36 = getelementptr inbounds i8, ptr %34, i64 %idxprom35
  store i8 0, ptr %arrayidx36, align 1
  %36 = load i32, ptr %io, align 4
  store i32 %36, ptr %retval, align 4
  br label %return

return:                                           ; preds = %if.end34, %if.then33, %if.then26, %if.then12, %if.then
  %37 = load i32, ptr %retval, align 4
  ret i32 %37
}