; Function Attrs: mustprogress nofree norecurse nosync nounwind memory(argmem: readwrite) uwtable
define internal fastcc noundef i32 @_ZL13encode_base64PKhiPci(ptr nocapture noundef readonly %in_, i32 noundef %in_len_, ptr nocapture noundef writeonly %out_) unnamed_addr #8 {
entry:
  %cmp37 = icmp sgt i32 %in_len_, 0
  br i1 %cmp37, label %for.body.preheader, label %if.end34

for.body.preheader:                               ; preds = %entry
  %wide.trip.count55 = zext nneg i32 %in_len_ to i64
  br label %for.body

for.body:                                         ; preds = %for.body.preheader, %for.inc
  %indvars.iv52 = phi i64 [ 0, %for.body.preheader ], [ %indvars.iv.next53, %for.inc ]
  %rem.040 = phi i32 [ 0, %for.body.preheader ], [ %rem.1.lcssa, %for.inc ]
  %v.039 = phi i32 [ 0, %for.body.preheader ], [ %or, %for.inc ]
  %io.038 = phi i32 [ 0, %for.body.preheader ], [ %io.1.lcssa, %for.inc ]
  %arrayidx = getelementptr inbounds i8, ptr %in_, i64 %indvars.iv52
  %0 = load i8, ptr %arrayidx, align 1
  %shl = shl i32 %v.039, 8
  %conv = zext i8 %0 to i32
  %or = or disjoint i32 %shl, %conv
  %add = add nsw i32 %rem.040, 8
  %cmp133 = icmp sgt i32 %rem.040, -3
  br i1 %cmp133, label %while.body.preheader, label %for.inc

while.body.preheader:                             ; preds = %for.body
  %1 = sext i32 %io.038 to i64
  %smax = tail call i32 @llvm.smax.i32(i32 %io.038, i32 2048)
  %wide.trip.count = zext nneg i32 %smax to i64
  br label %while.body

while.body:                                       ; preds = %while.body.preheader, %if.end
  %indvars.iv = phi i64 [ %1, %while.body.preheader ], [ %indvars.iv.next, %if.end ]
  %rem.135 = phi i32 [ %add, %while.body.preheader ], [ %sub, %if.end ]
  %exitcond = icmp eq i64 %indvars.iv, %wide.trip.count
  br i1 %exitcond, label %return, label %if.end

if.end:                                           ; preds = %while.body
  %sub = add nsw i32 %rem.135, -6
  %shr = lshr i32 %or, %sub
  %and = and i32 %shr, 63
  %idxprom3 = zext nneg i32 %and to i64
  %arrayidx4 = getelementptr inbounds [65 x i8], ptr @_ZZL13encode_base64PKhiPciE13base64enc_tab, i64 0, i64 %idxprom3
  %2 = load i8, ptr %arrayidx4, align 1
  %indvars.iv.next = add nsw i64 %indvars.iv, 1
  %arrayidx6 = getelementptr inbounds i8, ptr %out_, i64 %indvars.iv
  store i8 %2, ptr %arrayidx6, align 1
  %cmp1 = icmp ugt i32 %rem.135, 11
  br i1 %cmp1, label %while.body, label %for.inc.loopexit, !llvm.loop !4

for.inc.loopexit:                                 ; preds = %if.end
  %3 = trunc i64 %indvars.iv.next to i32
  br label %for.inc

for.inc:                                          ; preds = %for.inc.loopexit, %for.body
  %io.1.lcssa = phi i32 [ %io.038, %for.body ], [ %3, %for.inc.loopexit ]
  %rem.1.lcssa = phi i32 [ %add, %for.body ], [ %sub, %for.inc.loopexit ]
  %indvars.iv.next53 = add nuw nsw i64 %indvars.iv52, 1
  %exitcond56.not = icmp eq i64 %indvars.iv.next53, %wide.trip.count55
  br i1 %exitcond56.not, label %for.end, label %for.body, !llvm.loop !6

for.end:                                          ; preds = %for.inc
  %tobool.not = icmp eq i32 %rem.1.lcssa, 0
  br i1 %tobool.not, label %if.end20, label %if.then8

if.then8:                                         ; preds = %for.end
  %cmp11 = icmp sgt i32 %io.1.lcssa, 2047
  br i1 %cmp11, label %return, label %if.end13

if.end13:                                         ; preds = %if.then8
  %sub9 = sub nsw i32 6, %rem.1.lcssa
  %shl10 = shl i32 %conv, %sub9
  %and14 = and i32 %shl10, 63
  %idxprom15 = zext nneg i32 %and14 to i64
  %arrayidx16 = getelementptr inbounds [65 x i8], ptr @_ZZL13encode_base64PKhiPciE13base64enc_tab, i64 0, i64 %idxprom15
  %4 = load i8, ptr %arrayidx16, align 1
  %inc17 = add nsw i32 %io.1.lcssa, 1
  %idxprom18 = sext i32 %io.1.lcssa to i64
  %arrayidx19 = getelementptr inbounds i8, ptr %out_, i64 %idxprom18
  store i8 %4, ptr %arrayidx19, align 1
  br label %if.end20

if.end20:                                         ; preds = %if.end13, %for.end
  %io.2 = phi i32 [ %inc17, %if.end13 ], [ %io.1.lcssa, %for.end ]
  %and2245 = and i32 %io.2, 3
  %tobool23.not46 = icmp eq i32 %and2245, 0
  br i1 %tobool23.not46, label %while.end31, label %while.body24.preheader

while.body24.preheader:                           ; preds = %if.end20
  %5 = sext i32 %io.2 to i64
  %smax60 = tail call i32 @llvm.smax.i32(i32 %io.2, i32 2048)
  %wide.trip.count61 = zext nneg i32 %smax60 to i64
  br label %while.body24

while.body24:                                     ; preds = %while.body24.preheader, %if.end27
  %indvars.iv57 = phi i64 [ %5, %while.body24.preheader ], [ %indvars.iv.next58, %if.end27 ]
  %exitcond62 = icmp eq i64 %indvars.iv57, %wide.trip.count61
  br i1 %exitcond62, label %return, label %if.end27

if.end27:                                         ; preds = %while.body24
  %indvars.iv.next58 = add nsw i64 %indvars.iv57, 1
  %arrayidx30 = getelementptr inbounds i8, ptr %out_, i64 %indvars.iv57
  store i8 61, ptr %arrayidx30, align 1
  %6 = trunc i64 %indvars.iv.next58 to i32
  %and22 = and i32 %6, 3
  %tobool23.not = icmp eq i32 %and22, 0
  br i1 %tobool23.not, label %while.end31, label %while.body24, !llvm.loop !7

while.end31:                                      ; preds = %if.end27, %if.end20
  %io.3.lcssa = phi i32 [ %io.2, %if.end20 ], [ %6, %if.end27 ]
  %cmp32 = icmp sgt i32 %io.3.lcssa, 2047
  br i1 %cmp32, label %return, label %if.end34

if.end34:                                         ; preds = %entry, %while.end31
  %io.3.lcssa72 = phi i32 [ %io.3.lcssa, %while.end31 ], [ 0, %entry ]
  %idxprom35 = sext i32 %io.3.lcssa72 to i64
  %arrayidx36 = getelementptr inbounds i8, ptr %out_, i64 %idxprom35
  store i8 0, ptr %arrayidx36, align 1
  br label %return

return:                                           ; preds = %while.body, %while.body24, %while.end31, %if.then8, %if.end34
  %retval.0 = phi i32 [ %io.3.lcssa72, %if.end34 ], [ -1, %if.then8 ], [ -1, %while.end31 ], [ -1, %while.body24 ], [ -1, %while.body ]
  ret i32 %retval.0
}